; Function Attrs: mustprogress nounwind uwtable
define hidden void @_ZN11check_logicD2Ev(ptr noundef nonnull readonly align 8 captures(none) dereferenceable(8) %0) unnamed_addr #4 align 2 personality ptr @__gxx_personality_v0 {
  %2 = load ptr, ptr %0, align 8, !tbaa !3
  %.not = icmp eq ptr %2, null
  br i1 %.not, label %_Z7deallocIN11check_logic3impEEvPT_.exit, label %3

3:                                                ; preds = %1
  tail call void @_ZN11check_logic3impD2Ev(ptr noundef nonnull align 8 dereferenceable(344) %2) #24
  invoke void @_ZN6memory10deallocateEPv(ptr noundef nonnull %2)
          to label %_Z7deallocIN11check_logic3impEEvPT_.exit unwind label %4

_Z7deallocIN11check_logic3impEEvPT_.exit:         ; preds = %3, %1
  ret void

4:                                                ; preds = %3
  %5 = landingpad { ptr, i32 }
          catch ptr null
  %6 = extractvalue { ptr, i32 } %5, 0
  tail call void @__clang_call_terminate(ptr %6) #25
  unreachable
}